target datalayout = "e-m:e-p270:32:32-p271:32:32-p272:64:64-i64:64-i128:128-f80:128-n8:16:32:64-S128"
target triple = "x86_64-pc-linux-gnu"

%struct.H5HF_hdr_t = type { %struct.H5C_cache_entry_t, i32, i32, i8, i8, i8, i8, %struct.H5HF_dtable_t, i64, i64, i32, i64, i64, %struct.H5O_pline_t, i64, i32, i64, i64, i64, i64, i64, i64, i64, i64, i64, i64, i64, i32, ptr, i64, i8, i8, i8, ptr, i32, ptr, %struct.H5HF_block_iter_t, ptr, i64, i8, i8, i64, i8, i8, i8, i8 }
%struct.H5C_cache_entry_t = type { ptr, i64, i64, ptr, i8, ptr, i8, i8, i8, i8, i32, i8, i8, i8, i8, i8, i32, ptr, i32, i32, i32, i32, i32, i8, i8, ptr, ptr, ptr, ptr, ptr, ptr, i8, i32, i8, i64, ptr, i64, i64, i32, i8, i32, i32, i8, ptr, ptr, ptr }
%struct.H5HF_dtable_t = type { %struct.H5HF_dtable_cparam_t, i64, i32, i32, i32, i32, i32, i32, i32, i64, ptr, ptr, ptr, ptr }
%struct.H5HF_dtable_cparam_t = type { i32, i64, i64, i32, i32 }
%struct.H5O_pline_t = type { %struct.H5O_shared_t, i32, i64, i64, ptr }
%struct.H5O_shared_t = type { i32, ptr, i32, %union.anon }
%union.anon = type { %struct.H5O_mesg_loc_t }
%struct.H5O_mesg_loc_t = type { i32, i64 }
%struct.H5HF_block_iter_t = type { i8, ptr }

@H5HF_init_g = external global i8, align 1
@H5_libterm_g = external global i8, align 1
@.str = private unnamed_addr constant [101 x i8] c"generated/home/dtcxzyw/WorkSpace/Projects/compilers/llvm-opt-benchmark/bench/hdf5/hdf5/src/H5HFhdr.c\00", align 1
@H5E_HEAP_g = external global i64, align 8
@__func__.H5HF__hdr_free = private unnamed_addr constant [15 x i8] c"H5HF__hdr_free\00", align 1
@H5E_CANTFREE_g = external global i64, align 8
@.str.45 = private unnamed_addr constant [46 x i8] c"unable to destroy fractal heap doubling table\00", align 1
@.str.46 = private unnamed_addr constant [37 x i8] c"unable to reset I/O pipeline message\00", align 1
@H5_H5HF_hdr_t_reg_free_list = internal global { i8, [3 x i8], i32, i32, [4 x i8], ptr, i64, ptr } { i8 0, [3 x i8] zeroinitializer, i32 0, i32 0, [4 x i8] zeroinitializer, ptr @.str.51, i64 704, ptr null }, align 8

; Function Attrs: nounwind uwtable
define i32 @H5HF__hdr_free(ptr noundef %0) #0 {
  %2 = alloca ptr, align 8
  %3 = alloca i32, align 4
  %4 = alloca i8, align 1
  store ptr %0, ptr %2, align 8, !tbaa !8
  call void @llvm.lifetime.start.p0(i64 4, ptr %3) #7
  store i32 0, ptr %3, align 4, !tbaa !38
  call void @llvm.lifetime.start.p0(i64 1, ptr %4) #7
  store i8 0, ptr %4, align 1, !tbaa !10
  %5 = load i8, ptr @H5HF_init_g, align 1, !tbaa !10, !range !12, !noundef !13
  %6 = trunc i8 %5 to i1
  br i1 %6, label %11, label %7

7:                                                ; preds = %1
  %8 = load i8, ptr @H5_libterm_g, align 1, !tbaa !10, !range !12, !noundef !13
  %9 = trunc i8 %8 to i1
  %10 = xor i1 %9, true
  br label %11

11:                                               ; preds = %7, %1
  %12 = phi i1 [ true, %1 ], [ %10, %7 ]
  %13 = xor i1 %12, true
  %14 = xor i1 %13, true
  %15 = zext i1 %14 to i32
  %16 = sext i32 %15 to i64
  %17 = call i64 @llvm.expect.i64(i64 %16, i64 1)
  %18 = icmp ne i64 %17, 0
  br i1 %18, label %19, label %78

19:                                               ; preds = %11
  %20 = load ptr, ptr %2, align 8, !tbaa !8
  %21 = getelementptr inbounds nuw %struct.H5HF_hdr_t, ptr %20, i32 0, i32 7
  %22 = call i32 @H5HF__dtable_dest(ptr noundef %21)
  %23 = icmp slt i32 %22, 0
  br i1 %23, label %24, label %43

24:                                               ; preds = %19
  br label %25

25:                                               ; preds = %24
  br label %26

26:                                               ; preds = %25
  br label %27

27:                                               ; preds = %26
  %28 = load i64, ptr @H5E_HEAP_g, align 8, !tbaa !14
  %29 = load i64, ptr @H5E_CANTFREE_g, align 8, !tbaa !14
  %30 = call i32 (ptr, ptr, i32, i64, i64, ptr, ...) @H5E_printf_stack(ptr noundef @.str, ptr noundef @__func__.H5HF__hdr_free, i32 noundef 1322, i64 noundef %28, i64 noundef %29, ptr noundef @.str.45)
  br label %31

31:                                               ; preds = %27
  br label %32

32:                                               ; preds = %31
  store i8 1, ptr %4, align 1, !tbaa !10
  %33 = load i8, ptr %4, align 1, !tbaa !10, !range !12, !noundef !13
  %34 = trunc i8 %33 to i1
  %35 = zext i1 %34 to i8
  store i8 %35, ptr %4, align 1, !tbaa !10
  br label %36

36:                                               ; preds = %32
  br label %37

37:                                               ; preds = %36
  br label %38

38:                                               ; preds = %37
  store i32 -1, ptr %3, align 4, !tbaa !38
  br label %77

39:                                               ; No predecessors!
  br label %40

40:                                               ; preds = %39
  br label %41

41:                                               ; preds = %40
  br label %42

42:                                               ; preds = %41
  br label %43

43:                                               ; preds = %42, %19
  %44 = load ptr, ptr %2, align 8, !tbaa !8
  %45 = getelementptr inbounds nuw %struct.H5HF_hdr_t, ptr %44, i32 0, i32 13
  %46 = getelementptr inbounds nuw %struct.H5O_pline_t, ptr %45, i32 0, i32 3
  %47 = load i64, ptr %46, align 8, !tbaa !71
  %48 = icmp ne i64 %47, 0
  br i1 %48, label %49, label %74

49:                                               ; preds = %43
  %50 = load ptr, ptr %2, align 8, !tbaa !8
  %51 = getelementptr inbounds nuw %struct.H5HF_hdr_t, ptr %50, i32 0, i32 13
  %52 = call i32 @H5O_msg_reset(i32 noundef 11, ptr noundef %51)
  %53 = icmp slt i32 %52, 0
  br i1 %53, label %54, label %73

54:                                               ; preds = %49
  br label %55

55:                                               ; preds = %54
  br label %56

56:                                               ; preds = %55
  br label %57

57:                                               ; preds = %56
  %58 = load i64, ptr @H5E_HEAP_g, align 8, !tbaa !14
  %59 = load i64, ptr @H5E_CANTFREE_g, align 8, !tbaa !14
  %60 = call i32 (ptr, ptr, i32, i64, i64, ptr, ...) @H5E_printf_stack(ptr noundef @.str, ptr noundef @__func__.H5HF__hdr_free, i32 noundef 1327, i64 noundef %58, i64 noundef %59, ptr noundef @.str.46)
  br label %61

61:                                               ; preds = %57
  br label %62

62:                                               ; preds = %61
  store i8 1, ptr %4, align 1, !tbaa !10
  %63 = load i8, ptr %4, align 1, !tbaa !10, !range !12, !noundef !13
  %64 = trunc i8 %63 to i1
  %65 = zext i1 %64 to i8
  store i8 %65, ptr %4, align 1, !tbaa !10
  br label %66

66:                                               ; preds = %62
  br label %67

67:                                               ; preds = %66
  br label %68

68:                                               ; preds = %67
  store i32 -1, ptr %3, align 4, !tbaa !38
  br label %77

69:                                               ; No predecessors!
  br label %70

70:                                               ; preds = %69
  br label %71

71:                                               ; preds = %70
  br label %72

72:                                               ; preds = %71
  br label %73

73:                                               ; preds = %72, %49
  br label %74

74:                                               ; preds = %73, %43
  %75 = load ptr, ptr %2, align 8, !tbaa !8
  %76 = call ptr @H5FL_reg_free(ptr noundef @H5_H5HF_hdr_t_reg_free_list, ptr noundef %75)
  store ptr %76, ptr %2, align 8, !tbaa !8
  br label %77

77:                                               ; preds = %74, %68, %38
  br label %78

78:                                               ; preds = %77, %11
  %79 = load i32, ptr %3, align 4, !tbaa !38
  call void @llvm.lifetime.end.p0(i64 1, ptr %4) #7
  call void @llvm.lifetime.end.p0(i64 4, ptr %3) #7
  ret i32 %79
}