; Function Attrs: nounwind uwtable
define range(i32 -1, 1) i32 @H5HF__hdr_free(ptr noundef %0) local_unnamed_addr #0 {
  %2 = load i8, ptr @H5HF_init_g, align 1, !tbaa !3, !range !7, !noundef !8
  %3 = trunc nuw i8 %2 to i1
  %4 = load i8, ptr @H5_libterm_g, align 1, !range !7
  %5 = trunc nuw i8 %4 to i1
  %6 = xor i1 %5, true
  %7 = select i1 %3, i1 true, i1 %6
  br i1 %7, label %8, label %29, !prof !9

8:                                                ; preds = %1
  %9 = getelementptr inbounds nuw i8, ptr %0, i64 264
  %10 = tail call i32 @H5HF__dtable_dest(ptr noundef nonnull %9) #7
  %11 = icmp slt i32 %10, 0
  br i1 %11, label %12, label %16

12:                                               ; preds = %8
  %13 = load i64, ptr @H5E_HEAP_g, align 8, !tbaa !10
  %14 = load i64, ptr @H5E_CANTFREE_g, align 8, !tbaa !10
  %15 = tail call i32 (ptr, ptr, i32, i64, i64, ptr, ...) @H5E_printf_stack(ptr noundef nonnull @.str, ptr noundef nonnull @__func__.H5HF__hdr_free, i32 noundef 1322, i64 noundef %13, i64 noundef %14, ptr noundef nonnull @.str.45) #7
  br label %29

16:                                               ; preds = %8
  %17 = getelementptr inbounds nuw i8, ptr %0, i64 472
  %18 = load i64, ptr %17, align 8, !tbaa !67
  %.not = icmp eq i64 %18, 0
  br i1 %.not, label %27, label %19

19:                                               ; preds = %16
  %20 = getelementptr inbounds nuw i8, ptr %0, i64 416
  %21 = tail call i32 @H5O_msg_reset(i32 noundef 11, ptr noundef nonnull %20) #7
  %22 = icmp slt i32 %21, 0
  br i1 %22, label %23, label %27

23:                                               ; preds = %19
  %24 = load i64, ptr @H5E_HEAP_g, align 8, !tbaa !10
  %25 = load i64, ptr @H5E_CANTFREE_g, align 8, !tbaa !10
  %26 = tail call i32 (ptr, ptr, i32, i64, i64, ptr, ...) @H5E_printf_stack(ptr noundef nonnull @.str, ptr noundef nonnull @__func__.H5HF__hdr_free, i32 noundef 1327, i64 noundef %24, i64 noundef %25, ptr noundef nonnull @.str.46) #7
  br label %29

27:                                               ; preds = %19, %16
  %28 = tail call ptr @H5FL_reg_free(ptr noundef nonnull @H5_H5HF_hdr_t_reg_free_list, ptr noundef nonnull %0) #7
  br label %29

29:                                               ; preds = %12, %23, %27, %1
  %.0 = phi i32 [ -1, %12 ], [ -1, %23 ], [ 0, %27 ], [ 0, %1 ]
  ret i32 %.0
}